; Function Attrs: mustprogress nofree norecurse nosync nounwind memory(readwrite, inaccessiblemem: none) uwtable
define dso_local noundef i64 @_ZN19btGenericMemoryPool24allocate_from_free_nodesEm(ptr nocapture noundef nonnull align 8 dereferenceable(56) %this, i64 noundef %num_elements) local_unnamed_addr #0 align 2 {
entry:
  %m_free_nodes_count = getelementptr inbounds i8, ptr %this, i64 32
  %0 = load i64, ptr %m_free_nodes_count, align 8
  %cmp = icmp eq i64 %0, 0
  br i1 %cmp, label %return, label %while.cond.preheader

while.cond.preheader:                             ; preds = %entry
  %m_allocated_sizes = getelementptr inbounds i8, ptr %this, i64 16
  %1 = load ptr, ptr %m_allocated_sizes, align 8
  %m_free_nodes = getelementptr inbounds i8, ptr %this, i64 8
  %2 = load ptr, ptr %m_free_nodes, align 8
  br label %while.body

while.body:                                       ; preds = %while.cond.preheader, %while.body
  %revindex.019 = phi i64 [ %0, %while.cond.preheader ], [ %dec, %while.body ]
  %dec = add i64 %revindex.019, -1
  %arrayidx = getelementptr inbounds i64, ptr %2, i64 %dec
  %3 = load i64, ptr %arrayidx, align 8
  %arrayidx4 = getelementptr inbounds i64, ptr %1, i64 %3
  %4 = load i64, ptr %arrayidx4, align 8
  %cmp5.not = icmp ult i64 %4, %num_elements
  %spec.select = select i1 %cmp5.not, i64 4294967295, i64 %dec
  %tobool = icmp ne i64 %dec, 0
  %cmp3 = icmp eq i64 %spec.select, 4294967295
  %5 = and i1 %cmp3, %tobool
  br i1 %5, label %while.body, label %while.end, !llvm.loop !5

while.end:                                        ; preds = %while.body
  br i1 %cmp3, label %return, label %if.end10

if.end10:                                         ; preds = %while.end
  %arrayidx12 = getelementptr inbounds i64, ptr %2, i64 %spec.select
  %6 = load i64, ptr %arrayidx12, align 8
  %arrayidx14 = getelementptr inbounds i64, ptr %1, i64 %6
  %7 = load i64, ptr %arrayidx14, align 8
  store i64 %num_elements, ptr %arrayidx14, align 8
  %cmp17.not = icmp eq i64 %7, %num_elements
  br i1 %cmp17.not, label %if.else, label %if.then18

if.then18:                                        ; preds = %if.end10
  %sub = sub i64 %7, %num_elements
  %add = add i64 %6, %num_elements
  %8 = load ptr, ptr %m_free_nodes, align 8
  %arrayidx20 = getelementptr inbounds i64, ptr %8, i64 %spec.select
  store i64 %add, ptr %arrayidx20, align 8
  %9 = load ptr, ptr %m_allocated_sizes, align 8
  %arrayidx23 = getelementptr inbounds i64, ptr %9, i64 %add
  store i64 %sub, ptr %arrayidx23, align 8
  br label %return

if.else:                                          ; preds = %if.end10
  %10 = load ptr, ptr %m_free_nodes, align 8
  %11 = load i64, ptr %m_free_nodes_count, align 8
  %12 = getelementptr i64, ptr %10, i64 %11
  %arrayidx27 = getelementptr i8, ptr %12, i64 -8
  %13 = load i64, ptr %arrayidx27, align 8
  %arrayidx29 = getelementptr inbounds i64, ptr %10, i64 %spec.select
  store i64 %13, ptr %arrayidx29, align 8
  %14 = load i64, ptr %m_free_nodes_count, align 8
  %dec31 = add i64 %14, -1
  store i64 %dec31, ptr %m_free_nodes_count, align 8
  br label %return

return:                                           ; preds = %if.then18, %if.else, %while.end, %entry
  %retval.0 = phi i64 [ 4294967295, %entry ], [ 4294967295, %while.end ], [ %6, %if.else ], [ %6, %if.then18 ]
  ret i64 %retval.0
}